CCS PCM C Compiler, Version 5.015, 5967               03-jun.-23 11:50

               Filename:   C:\SP_PROGRAMAS\U5\seguidor_linea\Parte2_proyecto\main.lst

               ROM used:   267 words (26%)
                           Largest free fragment is 757
               RAM used:   6 (9%) at main() level
                           7 (10%) worst case
               Stack used: 2 locations
               Stack size: 8

*
0000:  MOVLW  00
0001:  MOVWF  0A
0002:  GOTO   0DE
0003:  NOP
.................... #include <16F84A.h> 
.................... //////////// Standard Header file for the PIC16F84A device //////////////// 
.................... /////////////////////////////////////////////////////////////////////////// 
.................... ////        (C) Copyright 1996, 2013 Custom Computer Services          //// 
.................... //// This source code may only be used by licensed users of the CCS C  //// 
.................... //// compiler.  This source code may only be distributed to other      //// 
.................... //// licensed users of the CCS C compiler.  No other use, reproduction //// 
.................... //// or distribution is permitted without written permission.          //// 
.................... //// Derivative programs created using this software in object code    //// 
.................... //// form are not restricted in any way.                               //// 
.................... /////////////////////////////////////////////////////////////////////////// 
.................... #device PIC16F84A 
....................  
.................... #list 
....................  
.................... #fuses XT, NOWDT 
.................... #use delay(clock = 4000000) 
*
0015:  MOVLW  13
0016:  MOVWF  04
0017:  MOVF   00,W
0018:  BTFSC  03.2
0019:  GOTO   028
001A:  MOVLW  01
001B:  MOVWF  0D
001C:  CLRF   0C
001D:  DECFSZ 0C,F
001E:  GOTO   01D
001F:  DECFSZ 0D,F
0020:  GOTO   01C
0021:  MOVLW  4A
0022:  MOVWF  0C
0023:  DECFSZ 0C,F
0024:  GOTO   023
0025:  GOTO   026
0026:  DECFSZ 00,F
0027:  GOTO   01A
0028:  RETURN
.................... #use fast_io(B) // Configuramos los TRIS solo una vez, es la forma más rápida de trabajar con los puertos 
.................... #use fast_io(A) 
.................... #use standard_io(B) 
.................... #use standard_io(A) 
....................  
....................  
.................... #define bobina_1 PIN_B0 
.................... #define bobina_2 PIN_B1 
.................... #define bobina_3 PIN_B2 
.................... #define bobina_4 PIN_B3 
....................  
.................... #define pulsador_izq PIN_A2 
.................... #define pulsador_der PIN_A3 
....................  
.................... void pasos_izquierda(int velocidad); 
.................... void pasos_derecha(int velocidad); 
.................... void pasos_off(void); 
....................  
.................... void detener(void) 
.................... { 
.................... output_low(PIN_B4); 
*
00D5:  BSF    03.5
00D6:  BCF    06.4
00D7:  BCF    03.5
00D8:  BCF    06.4
.................... output_low(PIN_B5); 
00D9:  BSF    03.5
00DA:  BCF    06.5
00DB:  BCF    03.5
00DC:  BCF    06.5
00DD:  GOTO   109 (RETURN)
.................... } 
.................... void sacar_chorro(void){ 
.................... output_high(PIN_B4); 
*
00C3:  BSF    03.5
00C4:  BCF    06.4
00C5:  BCF    03.5
00C6:  BSF    06.4
.................... output_low(PIN_B5); 
00C7:  BSF    03.5
00C8:  BCF    06.5
00C9:  BCF    03.5
00CA:  BCF    06.5
00CB:  GOTO   103 (RETURN)
.................... } 
.................... void meter(void){ 
.................... output_low(PIN_B4); 
00CC:  BSF    03.5
00CD:  BCF    06.4
00CE:  BCF    03.5
00CF:  BCF    06.4
.................... output_high(PIN_B5); 
00D0:  BSF    03.5
00D1:  BCF    06.5
00D2:  BCF    03.5
00D3:  BSF    06.5
00D4:  GOTO   106 (RETURN)
.................... } 
....................  
.................... void pasos_izquierda(int velocidad) 
.................... { 
....................    output_low(bobina_1); 
*
0029:  BSF    03.5
002A:  BCF    06.0
002B:  BCF    03.5
002C:  BCF    06.0
....................    output_low(bobina_2); 
002D:  BSF    03.5
002E:  BCF    06.1
002F:  BCF    03.5
0030:  BCF    06.1
....................    output_high(bobina_3); 
0031:  BSF    03.5
0032:  BCF    06.2
0033:  BCF    03.5
0034:  BSF    06.2
....................    output_high(bobina_4); 
0035:  BSF    03.5
0036:  BCF    06.3
0037:  BCF    03.5
0038:  BSF    06.3
....................    delay_ms(velocidad); 
0039:  MOVF   12,W
003A:  MOVWF  13
003B:  CALL   015
....................     
....................    output_low(bobina_1); 
003C:  BSF    03.5
003D:  BCF    06.0
003E:  BCF    03.5
003F:  BCF    06.0
....................    output_high(bobina_2); 
0040:  BSF    03.5
0041:  BCF    06.1
0042:  BCF    03.5
0043:  BSF    06.1
....................    output_high(bobina_3); 
0044:  BSF    03.5
0045:  BCF    06.2
0046:  BCF    03.5
0047:  BSF    06.2
....................    output_low(bobina_4); 
0048:  BSF    03.5
0049:  BCF    06.3
004A:  BCF    03.5
004B:  BCF    06.3
....................    delay_ms(velocidad); 
004C:  MOVF   12,W
004D:  MOVWF  13
004E:  CALL   015
....................     
....................    output_high(bobina_1); 
004F:  BSF    03.5
0050:  BCF    06.0
0051:  BCF    03.5
0052:  BSF    06.0
....................    output_high(bobina_2); 
0053:  BSF    03.5
0054:  BCF    06.1
0055:  BCF    03.5
0056:  BSF    06.1
....................    output_low(bobina_3); 
0057:  BSF    03.5
0058:  BCF    06.2
0059:  BCF    03.5
005A:  BCF    06.2
....................    output_low(bobina_4); 
005B:  BSF    03.5
005C:  BCF    06.3
005D:  BCF    03.5
005E:  BCF    06.3
....................    delay_ms(velocidad); 
005F:  MOVF   12,W
0060:  MOVWF  13
0061:  CALL   015
....................     
....................    output_high(bobina_1); 
0062:  BSF    03.5
0063:  BCF    06.0
0064:  BCF    03.5
0065:  BSF    06.0
....................    output_low(bobina_2); 
0066:  BSF    03.5
0067:  BCF    06.1
0068:  BCF    03.5
0069:  BCF    06.1
....................    output_low(bobina_3); 
006A:  BSF    03.5
006B:  BCF    06.2
006C:  BCF    03.5
006D:  BCF    06.2
....................    output_high(bobina_4); 
006E:  BSF    03.5
006F:  BCF    06.3
0070:  BCF    03.5
0071:  BSF    06.3
....................    delay_ms(velocidad); 
0072:  MOVF   12,W
0073:  MOVWF  13
0074:  CALL   015
0075:  GOTO   0F1 (RETURN)
.................... } 
....................  
.................... void pasos_derecha(int velocidad) 
.................... { 
....................    output_high(bobina_1); 
0076:  BSF    03.5
0077:  BCF    06.0
0078:  BCF    03.5
0079:  BSF    06.0
....................    output_high(bobina_2); 
007A:  BSF    03.5
007B:  BCF    06.1
007C:  BCF    03.5
007D:  BSF    06.1
....................    output_low(bobina_3); 
007E:  BSF    03.5
007F:  BCF    06.2
0080:  BCF    03.5
0081:  BCF    06.2
....................    output_low(bobina_4); 
0082:  BSF    03.5
0083:  BCF    06.3
0084:  BCF    03.5
0085:  BCF    06.3
....................    delay_ms(velocidad); 
0086:  MOVF   12,W
0087:  MOVWF  13
0088:  CALL   015
....................     
....................    output_low(bobina_1); 
0089:  BSF    03.5
008A:  BCF    06.0
008B:  BCF    03.5
008C:  BCF    06.0
....................    output_high(bobina_2); 
008D:  BSF    03.5
008E:  BCF    06.1
008F:  BCF    03.5
0090:  BSF    06.1
....................    output_high(bobina_3); 
0091:  BSF    03.5
0092:  BCF    06.2
0093:  BCF    03.5
0094:  BSF    06.2
....................    output_low(bobina_4); 
0095:  BSF    03.5
0096:  BCF    06.3
0097:  BCF    03.5
0098:  BCF    06.3
....................    delay_ms(velocidad); 
0099:  MOVF   12,W
009A:  MOVWF  13
009B:  CALL   015
....................     
....................    output_low(bobina_1); 
009C:  BSF    03.5
009D:  BCF    06.0
009E:  BCF    03.5
009F:  BCF    06.0
....................    output_low(bobina_2); 
00A0:  BSF    03.5
00A1:  BCF    06.1
00A2:  BCF    03.5
00A3:  BCF    06.1
....................    output_high(bobina_3); 
00A4:  BSF    03.5
00A5:  BCF    06.2
00A6:  BCF    03.5
00A7:  BSF    06.2
....................    output_high(bobina_4); 
00A8:  BSF    03.5
00A9:  BCF    06.3
00AA:  BCF    03.5
00AB:  BSF    06.3
....................    delay_ms(velocidad); 
00AC:  MOVF   12,W
00AD:  MOVWF  13
00AE:  CALL   015
....................     
....................    output_high(bobina_1); 
00AF:  BSF    03.5
00B0:  BCF    06.0
00B1:  BCF    03.5
00B2:  BSF    06.0
....................    output_low(bobina_2); 
00B3:  BSF    03.5
00B4:  BCF    06.1
00B5:  BCF    03.5
00B6:  BCF    06.1
....................    output_low(bobina_3); 
00B7:  BSF    03.5
00B8:  BCF    06.2
00B9:  BCF    03.5
00BA:  BCF    06.2
....................    output_high(bobina_4); 
00BB:  BSF    03.5
00BC:  BCF    06.3
00BD:  BCF    03.5
00BE:  BSF    06.3
....................    delay_ms(velocidad); 
00BF:  MOVF   12,W
00C0:  MOVWF  13
00C1:  CALL   015
00C2:  GOTO   0F9 (RETURN)
.................... } 
....................  
.................... void pasos_off(void) 
.................... { 
....................    output_low(bobina_1); 
*
0004:  BSF    03.5
0005:  BCF    06.0
0006:  BCF    03.5
0007:  BCF    06.0
....................    output_low(bobina_2); 
0008:  BSF    03.5
0009:  BCF    06.1
000A:  BCF    03.5
000B:  BCF    06.1
....................    output_low(bobina_3); 
000C:  BSF    03.5
000D:  BCF    06.2
000E:  BCF    03.5
000F:  BCF    06.2
....................    output_low(bobina_4); 
0010:  BSF    03.5
0011:  BCF    06.3
0012:  BCF    03.5
0013:  BCF    06.3
0014:  GOTO   0E9 (RETURN)
.................... } 
....................  
.................... void main(void) 
*
00DE:  MOVF   03,W
00DF:  ANDLW  1F
00E0:  MOVWF  03
00E1:  CLRF   11
.................... {  
....................    int entradas = 0b00; 
....................    set_tris_B(0b00000000); // Puerto B como salidas 
00E2:  MOVLW  00
00E3:  BSF    03.5
00E4:  MOVWF  06
....................    set_tris_A(0b11111111); // Puerto A como entradas digitales 
00E5:  MOVLW  FF
00E6:  MOVWF  05
....................   // OUTPUT_B(0); // Inicializamos en 0 el puerto B 
....................  
....................  
....................    while (1) 
....................    {   
....................    //motor paso a paso codigo  
....................     pasos_off(); 
00E7:  BCF    03.5
00E8:  GOTO   004
....................        
....................       if(input(pulsador_izq) == 1) 
00E9:  BSF    03.5
00EA:  BSF    05.2
00EB:  BCF    03.5
00EC:  BTFSS  05.2
00ED:  GOTO   0F1
....................       { 
....................          pasos_izquierda(2); 
00EE:  MOVLW  02
00EF:  MOVWF  12
00F0:  GOTO   029
....................       } 
....................        
....................       if(input(pulsador_der) == 1) 
00F1:  BSF    03.5
00F2:  BSF    05.3
00F3:  BCF    03.5
00F4:  BTFSS  05.3
00F5:  GOTO   0F9
....................       { 
....................          pasos_derecha(2); 
00F6:  MOVLW  02
00F7:  MOVWF  12
00F8:  GOTO   076
....................       } 
....................       //fin motor paso a paso codigo 
....................        
....................       // Lectura de los sensores en el puerto A 
....................       entradas = input_A();  
00F9:  MOVLW  FF
00FA:  BSF    03.5
00FB:  MOVWF  05
00FC:  BCF    03.5
00FD:  MOVF   05,W
00FE:  MOVWF  11
....................       // Control del movimiento del robot en función de los sensores 
....................       //controlamos sacar chorro 
....................       if (entradas == 0b11){ 
00FF:  MOVF   11,W
0100:  SUBLW  03
0101:  BTFSC  03.2
....................          sacar_chorro(); 
0102:  GOTO   0C3
....................       } 
....................       //controlamos regresar chorrro 
....................       if(entradas==0b01){ 
0103:  DECFSZ 11,W
0104:  GOTO   106
....................          meter(); 
0105:  GOTO   0CC
....................       } 
....................       //controlamos detener motor 
....................       if(entradas==0b00){ 
0106:  MOVF   11,F
0107:  BTFSC  03.2
....................          detener(); 
0108:  GOTO   0D5
....................       } 
0109:  GOTO   0E8
....................      
....................        
....................    } 
.................... } 
010A:  SLEEP

Configuration Fuses:
   Word  1: 3FF1   XT NOWDT PUT NOPROTECT
